target datalayout = "e-m:e-p270:32:32-p271:32:32-p272:64:64-i64:64-i128:128-f80:128-n8:16:32:64-S128"
target triple = "x86_64-pc-linux-gnu"

%struct._zval_struct = type { %union._zend_value, %union.anon.9, %union.anon.12 }
%union._zend_value = type { i64 }
%union.anon.9 = type { i32 }
%union.anon.12 = type { i32 }
%struct._zend_refcounted_h = type { i32, %union.anon.0 }
%union.anon.0 = type { i32 }
%struct._zend_object = type { %struct._zend_refcounted_h, i32, ptr, ptr, ptr, [1 x %struct._zval_struct] }
%struct._zend_string = type { %struct._zend_refcounted_h, i64, i64, [1 x i8] }

@.str = private unnamed_addr constant [28 x i8] c"__PHP_Incomplete_Class_Name\00", align 1
@.str.3 = private unnamed_addr constant [8 x i8] c"unknown\00", align 1

; Function Attrs: nounwind uwtable
define ptr @php_lookup_class_name(ptr noundef %0) #0 {
  %2 = alloca ptr, align 8
  %3 = alloca i32, align 4
  %4 = alloca ptr, align 8
  %5 = alloca ptr, align 8
  %6 = alloca ptr, align 8
  %7 = alloca ptr, align 8
  %8 = alloca ptr, align 8
  store ptr %0, ptr %7, align 8
  %9 = load ptr, ptr %7, align 8
  %10 = getelementptr inbounds %struct._zend_object, ptr %9, i32 0, i32 4
  %11 = load ptr, ptr %10, align 8
  %12 = icmp ne ptr %11, null
  br i1 %12, label %13, label %46

13:                                               ; preds = %1
  %14 = load ptr, ptr %7, align 8
  %15 = getelementptr inbounds %struct._zend_object, ptr %14, i32 0, i32 4
  %16 = load ptr, ptr %15, align 8
  %17 = call ptr @zend_hash_str_find(ptr noundef %16, ptr noundef @.str, i64 noundef 27)
  store ptr %17, ptr %8, align 8
  %18 = load ptr, ptr %8, align 8
  %19 = icmp ne ptr %18, null
  br i1 %19, label %20, label %45

20:                                               ; preds = %13
  %21 = load ptr, ptr %8, align 8
  store ptr %21, ptr %5, align 8
  %22 = load ptr, ptr %5, align 8
  %23 = getelementptr inbounds %struct._zval_struct, ptr %22, i32 0, i32 1
  %24 = load i8, ptr %23, align 8
  %25 = zext i8 %24 to i32
  %26 = icmp eq i32 %25, 6
  br i1 %26, label %27, label %45

27:                                               ; preds = %20
  %28 = load ptr, ptr %8, align 8
  %29 = getelementptr inbounds %struct._zval_struct, ptr %28, i32 0, i32 0
  %30 = load ptr, ptr %29, align 8
  store ptr %30, ptr %4, align 8
  %31 = load ptr, ptr %4, align 8
  %32 = getelementptr inbounds %struct._zend_refcounted_h, ptr %31, i32 0, i32 1
  %33 = load i32, ptr %32, align 4
  store i32 %33, ptr %3, align 4
  %34 = load i32, ptr %3, align 4
  %35 = and i32 %34, 1008
  %36 = and i32 %35, 64
  %37 = icmp ne i32 %36, 0
  br i1 %37, label %43, label %38

38:                                               ; preds = %27
  %39 = load ptr, ptr %4, align 8
  store ptr %39, ptr %2, align 8
  %40 = load ptr, ptr %2, align 8
  %41 = load i32, ptr %40, align 4
  %42 = add i32 %41, 1
  store i32 %42, ptr %40, align 4
  br label %43

43:                                               ; preds = %38, %27
  %44 = load ptr, ptr %4, align 8
  store ptr %44, ptr %6, align 8
  br label %47

45:                                               ; preds = %20, %13
  br label %46

46:                                               ; preds = %45, %1
  store ptr null, ptr %6, align 8
  br label %47

47:                                               ; preds = %46, %43
  %48 = load ptr, ptr %6, align 8
  ret ptr %48
}

; Function Attrs: nounwind uwtable
define internal void @throw_incomplete_class_error(ptr noundef %0, ptr noundef %1) #0 {
  %3 = alloca ptr, align 8
  %4 = alloca i32, align 4
  %5 = alloca ptr, align 8
  %6 = alloca i8, align 1
  %7 = alloca ptr, align 8
  %8 = alloca ptr, align 8
  %9 = alloca ptr, align 8
  store ptr %0, ptr %7, align 8
  store ptr %1, ptr %8, align 8
  %10 = load ptr, ptr %7, align 8
  %11 = call ptr @php_lookup_class_name(ptr noundef %10)
  store ptr %11, ptr %9, align 8
  %12 = load ptr, ptr %8, align 8
  %13 = load ptr, ptr %9, align 8
  %14 = icmp ne ptr %13, null
  br i1 %14, label %15, label %19

15:                                               ; preds = %2
  %16 = load ptr, ptr %9, align 8
  %17 = getelementptr inbounds %struct._zend_string, ptr %16, i32 0, i32 3
  %18 = getelementptr inbounds [1 x i8], ptr %17, i64 0, i64 0
  br label %20

19:                                               ; preds = %2
  br label %20

20:                                               ; preds = %19, %15
  %21 = phi ptr [ %18, %15 ], [ @.str.3, %19 ]
  call void (ptr, ptr, ...) @zend_throw_error(ptr noundef null, ptr noundef @.str.1, ptr noundef %12, ptr noundef %21)
  %22 = load ptr, ptr %9, align 8
  %23 = icmp ne ptr %22, null
  br i1 %23, label %24, label %52

24:                                               ; preds = %20
  %25 = load ptr, ptr %9, align 8
  store ptr %25, ptr %5, align 8
  store i8 0, ptr %6, align 1
  %26 = load ptr, ptr %5, align 8
  %27 = getelementptr inbounds %struct._zend_refcounted_h, ptr %26, i32 0, i32 1
  %28 = load i32, ptr %27, align 4
  store i32 %28, ptr %4, align 4
  %29 = load i32, ptr %4, align 4
  %30 = and i32 %29, 1008
  %31 = and i32 %30, 64
  %32 = icmp ne i32 %31, 0
  br i1 %32, label %51, label %33

33:                                               ; preds = %24
  %34 = load ptr, ptr %5, align 8
  store ptr %34, ptr %3, align 8
  %35 = load ptr, ptr %3, align 8
  %36 = load i32, ptr %35, align 4
  %37 = icmp ugt i32 %36, 0
  call void @llvm.assume(i1 %37)
  %38 = load ptr, ptr %3, align 8
  %39 = load i32, ptr %38, align 4
  %40 = add i32 %39, -1
  store i32 %40, ptr %38, align 4
  %41 = icmp eq i32 %40, 0
  br i1 %41, label %42, label %50

42:                                               ; preds = %33
  %43 = load i8, ptr %6, align 1
  %44 = trunc i8 %43 to i1
  br i1 %44, label %45, label %47

45:                                               ; preds = %42
  %46 = load ptr, ptr %5, align 8
  call void @free(ptr noundef %46) #5
  br label %49

47:                                               ; preds = %42
  %48 = load ptr, ptr %5, align 8
  call void @_efree(ptr noundef %48) #5
  br label %49

49:                                               ; preds = %47, %45
  br label %50

50:                                               ; preds = %49, %33
  br label %51

51:                                               ; preds = %50, %24
  br label %52

52:                                               ; preds = %51, %20
  ret void
}