; Function Attrs: nounwind uwtable
define internal fastcc void @throw_incomplete_class_error(ptr %.32.val, ptr noundef %0) unnamed_addr #2 {
  %.not.i = icmp eq ptr %.32.val, null
  br i1 %.not.i, label %php_lookup_class_name.exit.thread, label %2

2:                                                ; preds = %1
  %3 = tail call ptr @zend_hash_str_find(ptr noundef nonnull %.32.val, ptr noundef nonnull @.str, i64 noundef 27) #5
  %.not13.i = icmp eq ptr %3, null
  br i1 %.not13.i, label %php_lookup_class_name.exit.thread, label %4

4:                                                ; preds = %2
  %5 = getelementptr inbounds i8, ptr %3, i64 8
  %6 = load i8, ptr %5, align 8
  %7 = icmp eq i8 %6, 6
  br i1 %7, label %8, label %php_lookup_class_name.exit.thread

8:                                                ; preds = %4
  %9 = load ptr, ptr %3, align 8
  %10 = getelementptr inbounds i8, ptr %9, i64 4
  %11 = load i32, ptr %10, align 4
  %12 = and i32 %11, 64
  %.not14.i = icmp eq i32 %12, 0
  br i1 %.not14.i, label %13, label %16

13:                                               ; preds = %8
  %14 = load i32, ptr %9, align 4
  %15 = add i32 %14, 1
  store i32 %15, ptr %9, align 4
  br label %16

php_lookup_class_name.exit.thread:                ; preds = %2, %4, %1
  tail call void (ptr, ptr, ...) @zend_throw_error(ptr noundef null, ptr noundef nonnull @.str.1, ptr noundef %0, ptr noundef nonnull @.str.3) #5
  br label %26

16:                                               ; preds = %13, %8
  %17 = getelementptr inbounds i8, ptr %9, i64 24
  tail call void (ptr, ptr, ...) @zend_throw_error(ptr noundef null, ptr noundef nonnull @.str.1, ptr noundef %0, ptr noundef nonnull %17) #5
  %18 = load i32, ptr %10, align 4
  %19 = and i32 %18, 64
  %.not13 = icmp eq i32 %19, 0
  br i1 %.not13, label %20, label %26

20:                                               ; preds = %16
  %21 = load i32, ptr %9, align 4
  %22 = icmp ne i32 %21, 0
  tail call void @llvm.assume(i1 %22)
  %23 = add i32 %21, -1
  store i32 %23, ptr %9, align 4
  %24 = icmp eq i32 %23, 0
  br i1 %24, label %25, label %26

25:                                               ; preds = %20
  tail call void @_efree(ptr noundef nonnull %9) #5
  br label %26

26:                                               ; preds = %php_lookup_class_name.exit.thread, %16, %25, %20
  ret void
}